target datalayout = "e-m:e-p270:32:32-p271:32:32-p272:64:64-i64:64-i128:128-f80:128-n8:16:32:64-S128"
target triple = "x86_64-pc-linux-gnu"

@.str.1 = private unnamed_addr constant [6 x i8] c"EMERG\00", align 1
@.str.2 = private unnamed_addr constant [6 x i8] c"ALERT\00", align 1
@.str.3 = private unnamed_addr constant [5 x i8] c"CRIT\00", align 1
@.str.4 = private unnamed_addr constant [6 x i8] c"error\00", align 1
@.str.5 = private unnamed_addr constant [8 x i8] c"warning\00", align 1
@.str.6 = private unnamed_addr constant [5 x i8] c"NOTE\00", align 1
@.str.7 = private unnamed_addr constant [5 x i8] c"info\00", align 1
@.str.8 = private unnamed_addr constant [6 x i8] c"DEBUG\00", align 1
@.str.9 = private unnamed_addr constant [16 x i8] c"(unknown level)\00", align 1
@.str.10 = private unnamed_addr constant [12 x i8] c"CMP %s: %s\0A\00", align 1
@.str.11 = private unnamed_addr constant [12 x i8] c"reason(%lu)\00", align 1
@.str.12 = private unnamed_addr constant [6 x i8] c"%s:%s\00", align 1
@.str.13 = private unnamed_addr constant [3 x i8] c"%s\00", align 1
@stderr = external global ptr, align 8
@.str.18 = private unnamed_addr constant [19 x i8] c"(unknown function)\00", align 1

; Function Attrs: nounwind uwtable
define i32 @OSSL_CMP_print_to_bio(ptr noundef %0, ptr noundef %1, ptr noundef %2, i32 noundef %3, i32 noundef %4, ptr noundef %5) #0 {
  %7 = alloca ptr, align 8
  %8 = alloca ptr, align 8
  %9 = alloca ptr, align 8
  %10 = alloca i32, align 4
  %11 = alloca i32, align 4
  %12 = alloca ptr, align 8
  %13 = alloca ptr, align 8
  store ptr %0, ptr %7, align 8, !tbaa !17
  store ptr %1, ptr %8, align 8, !tbaa !3
  store ptr %2, ptr %9, align 8, !tbaa !3
  store i32 %3, ptr %10, align 4, !tbaa !12
  store i32 %4, ptr %11, align 4, !tbaa !12
  store ptr %5, ptr %12, align 8, !tbaa !3
  call void @llvm.lifetime.start.p0(i64 8, ptr %13) #7
  %14 = load i32, ptr %11, align 4, !tbaa !12
  %15 = icmp eq i32 %14, 0
  br i1 %15, label %16, label %17

16:                                               ; preds = %6
  br label %57

17:                                               ; preds = %6
  %18 = load i32, ptr %11, align 4, !tbaa !12
  %19 = icmp eq i32 %18, 1
  br i1 %19, label %20, label %21

20:                                               ; preds = %17
  br label %55

21:                                               ; preds = %17
  %22 = load i32, ptr %11, align 4, !tbaa !12
  %23 = icmp eq i32 %22, 2
  br i1 %23, label %24, label %25

24:                                               ; preds = %21
  br label %53

25:                                               ; preds = %21
  %26 = load i32, ptr %11, align 4, !tbaa !12
  %27 = icmp eq i32 %26, 3
  br i1 %27, label %28, label %29

28:                                               ; preds = %25
  br label %51

29:                                               ; preds = %25
  %30 = load i32, ptr %11, align 4, !tbaa !12
  %31 = icmp eq i32 %30, 4
  br i1 %31, label %32, label %33

32:                                               ; preds = %29
  br label %49

33:                                               ; preds = %29
  %34 = load i32, ptr %11, align 4, !tbaa !12
  %35 = icmp eq i32 %34, 5
  br i1 %35, label %36, label %37

36:                                               ; preds = %33
  br label %47

37:                                               ; preds = %33
  %38 = load i32, ptr %11, align 4, !tbaa !12
  %39 = icmp eq i32 %38, 6
  br i1 %39, label %40, label %41

40:                                               ; preds = %37
  br label %45

41:                                               ; preds = %37
  %42 = load i32, ptr %11, align 4, !tbaa !12
  %43 = icmp eq i32 %42, 7
  %44 = select i1 %43, ptr @.str.8, ptr @.str.9
  br label %45

45:                                               ; preds = %41, %40
  %46 = phi ptr [ @.str.7, %40 ], [ %44, %41 ]
  br label %47

47:                                               ; preds = %45, %36
  %48 = phi ptr [ @.str.6, %36 ], [ %46, %45 ]
  br label %49

49:                                               ; preds = %47, %32
  %50 = phi ptr [ @.str.5, %32 ], [ %48, %47 ]
  br label %51

51:                                               ; preds = %49, %28
  %52 = phi ptr [ @.str.4, %28 ], [ %50, %49 ]
  br label %53

53:                                               ; preds = %51, %24
  %54 = phi ptr [ @.str.3, %24 ], [ %52, %51 ]
  br label %55

55:                                               ; preds = %53, %20
  %56 = phi ptr [ @.str.2, %20 ], [ %54, %53 ]
  br label %57

57:                                               ; preds = %55, %16
  %58 = phi ptr [ @.str.1, %16 ], [ %56, %55 ]
  store ptr %58, ptr %13, align 8, !tbaa !3
  %59 = load ptr, ptr %7, align 8, !tbaa !17
  %60 = load ptr, ptr %13, align 8, !tbaa !3
  %61 = load ptr, ptr %12, align 8, !tbaa !3
  %62 = call i32 (ptr, ptr, ...) @BIO_printf(ptr noundef %59, ptr noundef @.str.10, ptr noundef %60, ptr noundef %61)
  %63 = icmp sge i32 %62, 0
  %64 = zext i1 %63 to i32
  call void @llvm.lifetime.end.p0(i64 8, ptr %13) #7
  ret i32 %64
}

; Function Attrs: inlinehint nounwind uwtable
define internal i32 @ERR_GET_REASON(i64 noundef %0) #5 {
  %2 = alloca i32, align 4
  %3 = alloca i64, align 8
  store i64 %0, ptr %3, align 8, !tbaa !14
  %4 = load i64, ptr %3, align 8, !tbaa !14
  %5 = and i64 %4, 2147483648
  %6 = icmp ne i64 %5, 0
  br i1 %6, label %7, label %11

7:                                                ; preds = %1
  %8 = load i64, ptr %3, align 8, !tbaa !14
  %9 = and i64 %8, 2147483647
  %10 = trunc i64 %9 to i32
  store i32 %10, ptr %2, align 4
  br label %15

11:                                               ; preds = %1
  %12 = load i64, ptr %3, align 8, !tbaa !14
  %13 = and i64 %12, 8388607
  %14 = trunc i64 %13 to i32
  store i32 %14, ptr %2, align 4
  br label %15

15:                                               ; preds = %11, %7
  %16 = load i32, ptr %2, align 4
  ret i32 %16
}

; Function Attrs: nounwind uwtable
define internal ptr @improve_location_name(ptr noundef %0, ptr noundef %1) #0 {
  %3 = alloca ptr, align 8
  %4 = alloca ptr, align 8
  %5 = alloca ptr, align 8
  store ptr %0, ptr %4, align 8, !tbaa !3
  store ptr %1, ptr %5, align 8, !tbaa !3
  %6 = load ptr, ptr %5, align 8, !tbaa !3
  %7 = icmp eq ptr %6, null
  br i1 %7, label %8, label %16

8:                                                ; preds = %2
  %9 = load ptr, ptr %4, align 8, !tbaa !3
  %10 = icmp eq ptr %9, null
  br i1 %10, label %11, label %12

11:                                               ; preds = %8
  br label %14

12:                                               ; preds = %8
  %13 = load ptr, ptr %4, align 8, !tbaa !3
  br label %14

14:                                               ; preds = %12, %11
  %15 = phi ptr [ @.str.18, %11 ], [ %13, %12 ]
  store ptr %15, ptr %3, align 8
  br label %34

16:                                               ; preds = %2
  %17 = load ptr, ptr %4, align 8, !tbaa !3
  %18 = icmp eq ptr %17, null
  br i1 %18, label %28, label %19

19:                                               ; preds = %16
  %20 = load ptr, ptr %4, align 8, !tbaa !3
  %21 = load i8, ptr %20, align 1, !tbaa !16
  %22 = sext i8 %21 to i32
  %23 = icmp eq i32 %22, 0
  br i1 %23, label %28, label %24

24:                                               ; preds = %19
  %25 = load ptr, ptr %4, align 8, !tbaa !3
  %26 = call i32 @strcmp(ptr noundef %25, ptr noundef @.str.18) #8
  %27 = icmp eq i32 %26, 0
  br i1 %27, label %28, label %30

28:                                               ; preds = %24, %19, %16
  %29 = load ptr, ptr %5, align 8, !tbaa !3
  br label %32

30:                                               ; preds = %24
  %31 = load ptr, ptr %4, align 8, !tbaa !3
  br label %32

32:                                               ; preds = %30, %28
  %33 = phi ptr [ %29, %28 ], [ %31, %30 ]
  store ptr %33, ptr %3, align 8
  br label %34

34:                                               ; preds = %32, %14
  %35 = load ptr, ptr %3, align 8
  ret ptr %35
}

; Function Attrs: nounwind uwtable
define void @OSSL_CMP_print_errors_cb(ptr noundef %0) #0 {
  %2 = alloca ptr, align 8
  %3 = alloca i64, align 8
  %4 = alloca [4096 x i8], align 16
  %5 = alloca ptr, align 8
  %6 = alloca ptr, align 8
  %7 = alloca ptr, align 8
  %8 = alloca i32, align 4
  %9 = alloca i32, align 4
  %10 = alloca ptr, align 8
  %11 = alloca i64, align 8
  %12 = alloca ptr, align 8
  %13 = alloca [256 x i8], align 16
  %14 = alloca ptr, align 8
  %15 = alloca i32, align 4
  store ptr %0, ptr %2, align 8, !tbaa !19
  call void @llvm.lifetime.start.p0(i64 8, ptr %3) #7
  call void @llvm.lifetime.start.p0(i64 4096, ptr %4) #7
  call void @llvm.lifetime.start.p0(i64 8, ptr %5) #7
  store ptr null, ptr %5, align 8, !tbaa !3
  call void @llvm.lifetime.start.p0(i64 8, ptr %6) #7
  store ptr null, ptr %6, align 8, !tbaa !3
  call void @llvm.lifetime.start.p0(i64 8, ptr %7) #7
  store ptr null, ptr %7, align 8, !tbaa !3
  call void @llvm.lifetime.start.p0(i64 4, ptr %8) #7
  call void @llvm.lifetime.start.p0(i64 4, ptr %9) #7
  br label %16

16:                                               ; preds = %97, %1
  %17 = call i64 @ERR_get_error_all(ptr noundef %5, ptr noundef %8, ptr noundef %6, ptr noundef %7, ptr noundef %9)
  store i64 %17, ptr %3, align 8, !tbaa !14
  %18 = icmp ne i64 %17, 0
  br i1 %18, label %19, label %98

19:                                               ; preds = %16
  call void @llvm.lifetime.start.p0(i64 8, ptr %10) #7
  %20 = load ptr, ptr %6, align 8, !tbaa !3
  %21 = load i64, ptr %3, align 8, !tbaa !14
  %22 = call ptr @ERR_lib_error_string(i64 noundef %21)
  %23 = call ptr @improve_location_name(ptr noundef %20, ptr noundef %22)
  store ptr %23, ptr %10, align 8, !tbaa !3
  call void @llvm.lifetime.start.p0(i64 8, ptr %11) #7
  %24 = load i64, ptr %3, align 8, !tbaa !14
  %25 = call i32 @ERR_GET_REASON(i64 noundef %24)
  %26 = sext i32 %25 to i64
  store i64 %26, ptr %11, align 8, !tbaa !14
  call void @llvm.lifetime.start.p0(i64 8, ptr %12) #7
  store ptr null, ptr %12, align 8, !tbaa !3
  call void @llvm.lifetime.start.p0(i64 256, ptr %13) #7
  %27 = load i64, ptr %3, align 8, !tbaa !14
  %28 = and i64 %27, 2147483648
  %29 = icmp ne i64 %28, 0
  br i1 %29, label %30, label %39

30:                                               ; preds = %19
  %31 = load i64, ptr %11, align 8, !tbaa !14
  %32 = trunc i64 %31 to i32
  %33 = getelementptr inbounds [256 x i8], ptr %13, i64 0, i64 0
  %34 = call i32 @openssl_strerror_r(i32 noundef %32, ptr noundef %33, i64 noundef 256)
  %35 = icmp ne i32 %34, 0
  br i1 %35, label %36, label %38

36:                                               ; preds = %30
  %37 = getelementptr inbounds [256 x i8], ptr %13, i64 0, i64 0
  store ptr %37, ptr %12, align 8, !tbaa !3
  br label %38

38:                                               ; preds = %36, %30
  br label %42

39:                                               ; preds = %19
  %40 = load i64, ptr %3, align 8, !tbaa !14
  %41 = call ptr @ERR_reason_error_string(i64 noundef %40)
  store ptr %41, ptr %12, align 8, !tbaa !3
  br label %42

42:                                               ; preds = %39, %38
  %43 = load ptr, ptr %12, align 8, !tbaa !3
  %44 = icmp eq ptr %43, null
  br i1 %44, label %45, label %50

45:                                               ; preds = %42
  %46 = getelementptr inbounds [256 x i8], ptr %13, i64 0, i64 0
  %47 = load i64, ptr %11, align 8, !tbaa !14
  %48 = call i32 (ptr, i64, ptr, ...) @BIO_snprintf(ptr noundef %46, i64 noundef 256, ptr noundef @.str.11, i64 noundef %47)
  %49 = getelementptr inbounds [256 x i8], ptr %13, i64 0, i64 0
  store ptr %49, ptr %12, align 8, !tbaa !3
  br label %50

50:                                               ; preds = %45, %42
  %51 = load ptr, ptr %7, align 8, !tbaa !3
  %52 = icmp ne ptr %51, null
  br i1 %52, label %53, label %62

53:                                               ; preds = %50
  %54 = load i32, ptr %9, align 4, !tbaa !12
  %55 = and i32 %54, 2
  %56 = icmp ne i32 %55, 0
  br i1 %56, label %57, label %62

57:                                               ; preds = %53
  %58 = getelementptr inbounds [4096 x i8], ptr %4, i64 0, i64 0
  %59 = load ptr, ptr %12, align 8, !tbaa !3
  %60 = load ptr, ptr %7, align 8, !tbaa !3
  %61 = call i32 (ptr, i64, ptr, ...) @BIO_snprintf(ptr noundef %58, i64 noundef 4096, ptr noundef @.str.12, ptr noundef %59, ptr noundef %60)
  br label %66

62:                                               ; preds = %53, %50
  %63 = getelementptr inbounds [4096 x i8], ptr %4, i64 0, i64 0
  %64 = load ptr, ptr %12, align 8, !tbaa !3
  %65 = call i32 (ptr, i64, ptr, ...) @BIO_snprintf(ptr noundef %63, i64 noundef 4096, ptr noundef @.str.13, ptr noundef %64)
  br label %66

66:                                               ; preds = %62, %57
  %67 = load ptr, ptr %2, align 8, !tbaa !19
  %68 = icmp eq ptr %67, null
  br i1 %68, label %69, label %84

69:                                               ; preds = %66
  call void @llvm.lifetime.start.p0(i64 8, ptr %14) #7
  %70 = load ptr, ptr @stderr, align 8, !tbaa !20
  %71 = call ptr @BIO_new_fp(ptr noundef %70, i32 noundef 0)
  store ptr %71, ptr %14, align 8, !tbaa !17
  %72 = load ptr, ptr %14, align 8, !tbaa !17
  %73 = icmp ne ptr %72, null
  br i1 %73, label %74, label %83

74:                                               ; preds = %69
  %75 = load ptr, ptr %14, align 8, !tbaa !17
  %76 = load ptr, ptr %10, align 8, !tbaa !3
  %77 = load ptr, ptr %5, align 8, !tbaa !3
  %78 = load i32, ptr %8, align 4, !tbaa !12
  %79 = getelementptr inbounds [4096 x i8], ptr %4, i64 0, i64 0
  %80 = call i32 @OSSL_CMP_print_to_bio(ptr noundef %75, ptr noundef %76, ptr noundef %77, i32 noundef %78, i32 noundef 3, ptr noundef %79)
  %81 = load ptr, ptr %14, align 8, !tbaa !17
  %82 = call i32 @BIO_free(ptr noundef %81)
  br label %83

83:                                               ; preds = %74, %69
  call void @llvm.lifetime.end.p0(i64 8, ptr %14) #7
  br label %94

84:                                               ; preds = %66
  %85 = load ptr, ptr %2, align 8, !tbaa !19
  %86 = load ptr, ptr %10, align 8, !tbaa !3
  %87 = load ptr, ptr %5, align 8, !tbaa !3
  %88 = load i32, ptr %8, align 4, !tbaa !12
  %89 = getelementptr inbounds [4096 x i8], ptr %4, i64 0, i64 0
  %90 = call i32 %85(ptr noundef %86, ptr noundef %87, i32 noundef %88, i32 noundef 3, ptr noundef %89)
  %91 = icmp sle i32 %90, 0
  br i1 %91, label %92, label %93

92:                                               ; preds = %84
  store i32 3, ptr %15, align 4
  br label %95

93:                                               ; preds = %84
  br label %94

94:                                               ; preds = %93, %83
  store i32 0, ptr %15, align 4
  br label %95

95:                                               ; preds = %94, %92
  call void @llvm.lifetime.end.p0(i64 256, ptr %13) #7
  call void @llvm.lifetime.end.p0(i64 8, ptr %12) #7
  call void @llvm.lifetime.end.p0(i64 8, ptr %11) #7
  call void @llvm.lifetime.end.p0(i64 8, ptr %10) #7
  %96 = load i32, ptr %15, align 4
  switch i32 %96, label %99 [
    i32 0, label %97
    i32 3, label %98
  ]

97:                                               ; preds = %95
  br label %16, !llvm.loop !22

98:                                               ; preds = %95, %16
  call void @llvm.lifetime.end.p0(i64 4, ptr %9) #7
  call void @llvm.lifetime.end.p0(i64 4, ptr %8) #7
  call void @llvm.lifetime.end.p0(i64 8, ptr %7) #7
  call void @llvm.lifetime.end.p0(i64 8, ptr %6) #7
  call void @llvm.lifetime.end.p0(i64 8, ptr %5) #7
  call void @llvm.lifetime.end.p0(i64 4096, ptr %4) #7
  call void @llvm.lifetime.end.p0(i64 8, ptr %3) #7
  ret void

99:                                               ; preds = %95
  unreachable
}