; Function Attrs: nounwind uwtable
define void @OSSL_CMP_print_errors_cb(ptr noundef readonly captures(address_is_null) %0) local_unnamed_addr #1 {
  %2 = alloca [4096 x i8], align 16
  %3 = alloca ptr, align 8
  %4 = alloca ptr, align 8
  %5 = alloca ptr, align 8
  %6 = alloca i32, align 4
  %7 = alloca i32, align 4
  %8 = alloca [256 x i8], align 16
  call void @llvm.lifetime.start.p0(i64 4096, ptr nonnull %2) #7
  call void @llvm.lifetime.start.p0(i64 8, ptr nonnull %3) #7
  store ptr null, ptr %3, align 8, !tbaa !7
  call void @llvm.lifetime.start.p0(i64 8, ptr nonnull %4) #7
  store ptr null, ptr %4, align 8, !tbaa !7
  call void @llvm.lifetime.start.p0(i64 8, ptr nonnull %5) #7
  store ptr null, ptr %5, align 8, !tbaa !7
  call void @llvm.lifetime.start.p0(i64 4, ptr nonnull %6) #7
  call void @llvm.lifetime.start.p0(i64 4, ptr nonnull %7) #7
  %9 = call i64 @ERR_get_error_all(ptr noundef nonnull %3, ptr noundef nonnull %6, ptr noundef nonnull %4, ptr noundef nonnull %5, ptr noundef nonnull %7) #7
  %.not33 = icmp eq i64 %9, 0
  br i1 %.not33, label %.loopexit, label %.lr.ph

.lr.ph:                                           ; preds = %1
  %10 = icmp eq ptr %0, null
  br label %11

11:                                               ; preds = %.lr.ph, %55
  %12 = phi i64 [ %9, %.lr.ph ], [ %56, %55 ]
  %13 = load ptr, ptr %4, align 8, !tbaa !7
  %14 = call ptr @ERR_lib_error_string(i64 noundef %12) #7
  %15 = icmp eq ptr %14, null
  %16 = icmp eq ptr %13, null
  br i1 %15, label %17, label %19

17:                                               ; preds = %11
  %18 = select i1 %16, ptr @.str.18, ptr %13
  br label %improve_location_name.exit

19:                                               ; preds = %11
  br i1 %16, label %improve_location_name.exit, label %20

20:                                               ; preds = %19
  %21 = load i8, ptr %13, align 1, !tbaa !10
  %22 = icmp eq i8 %21, 0
  br i1 %22, label %improve_location_name.exit, label %23

23:                                               ; preds = %20
  %24 = call i32 @strcmp(ptr noundef nonnull readonly dereferenceable(1) %13, ptr noundef nonnull dereferenceable(19) @.str.18) #8
  %25 = icmp eq i32 %24, 0
  %spec.select.i = select i1 %25, ptr %14, ptr %13
  br label %improve_location_name.exit

improve_location_name.exit:                       ; preds = %17, %19, %20, %23
  %.0.i = phi ptr [ %18, %17 ], [ %14, %20 ], [ %14, %19 ], [ %spec.select.i, %23 ]
  %26 = and i64 %12, 2147483648
  %.not.i = icmp eq i64 %26, 0
  %27 = trunc i64 %12 to i32
  %.0.v.i = select i1 %.not.i, i32 8388607, i32 2147483647
  %.0.i26 = and i32 %.0.v.i, %27
  %28 = zext nneg i32 %.0.i26 to i64
  call void @llvm.lifetime.start.p0(i64 256, ptr nonnull %8) #7
  br i1 %.not.i, label %31, label %29

29:                                               ; preds = %improve_location_name.exit
  %30 = call i32 @openssl_strerror_r(i32 noundef %.0.i26, ptr noundef nonnull %8, i64 noundef 256) #7
  %.not22 = icmp eq i32 %30, 0
  br i1 %.not22, label %.thread, label %.thread28

31:                                               ; preds = %improve_location_name.exit
  %32 = call ptr @ERR_reason_error_string(i64 noundef %12) #7
  %33 = icmp eq ptr %32, null
  br i1 %33, label %.thread, label %.thread28

.thread:                                          ; preds = %29, %31
  %34 = call i32 (ptr, i64, ptr, ...) @BIO_snprintf(ptr noundef nonnull %8, i64 noundef 256, ptr noundef nonnull @.str.11, i64 noundef %28) #7
  br label %.thread28

.thread28:                                        ; preds = %29, %.thread, %31
  %.1 = phi ptr [ %8, %.thread ], [ %32, %31 ], [ %8, %29 ]
  %35 = load ptr, ptr %5, align 8, !tbaa !7
  %.not23 = icmp eq ptr %35, null
  br i1 %.not23, label %41, label %36

36:                                               ; preds = %.thread28
  %37 = load i32, ptr %7, align 4, !tbaa !3
  %38 = and i32 %37, 2
  %.not24 = icmp eq i32 %38, 0
  br i1 %.not24, label %41, label %39

39:                                               ; preds = %36
  %40 = call i32 (ptr, i64, ptr, ...) @BIO_snprintf(ptr noundef nonnull %2, i64 noundef 4096, ptr noundef nonnull @.str.12, ptr noundef nonnull %.1, ptr noundef nonnull %35) #7
  br label %43

41:                                               ; preds = %36, %.thread28
  %42 = call i32 (ptr, i64, ptr, ...) @BIO_snprintf(ptr noundef nonnull %2, i64 noundef 4096, ptr noundef nonnull @.str.13, ptr noundef nonnull %.1) #7
  br label %43

43:                                               ; preds = %41, %39
  br i1 %10, label %44, label %50

44:                                               ; preds = %43
  %45 = load ptr, ptr @stderr, align 8, !tbaa !11
  %46 = call ptr @BIO_new_fp(ptr noundef %45, i32 noundef 0) #7
  %.not25 = icmp eq ptr %46, null
  br i1 %.not25, label %55, label %47

47:                                               ; preds = %44
  %48 = call i32 (ptr, ptr, ...) @BIO_printf(ptr noundef nonnull %46, ptr noundef nonnull @.str.10, ptr noundef nonnull @.str.4, ptr noundef nonnull %2) #7
  %49 = call i32 @BIO_free(ptr noundef nonnull %46) #7
  br label %55

50:                                               ; preds = %43
  %51 = load ptr, ptr %3, align 8, !tbaa !7
  %52 = load i32, ptr %6, align 4, !tbaa !3
  %53 = call i32 %0(ptr noundef %.0.i, ptr noundef %51, i32 noundef %52, i32 noundef 3, ptr noundef nonnull %2) #7
  %54 = icmp slt i32 %53, 1
  br i1 %54, label %.thread30, label %55

.thread30:                                        ; preds = %50
  call void @llvm.lifetime.end.p0(i64 256, ptr nonnull %8) #7
  br label %.loopexit

55:                                               ; preds = %50, %47, %44
  call void @llvm.lifetime.end.p0(i64 256, ptr nonnull %8) #7
  %56 = call i64 @ERR_get_error_all(ptr noundef nonnull %3, ptr noundef nonnull %6, ptr noundef nonnull %4, ptr noundef nonnull %5, ptr noundef nonnull %7) #7
  %.not = icmp eq i64 %56, 0
  br i1 %.not, label %.loopexit, label %11

.loopexit:                                        ; preds = %55, %1, %.thread30
  call void @llvm.lifetime.end.p0(i64 4, ptr nonnull %7) #7
  call void @llvm.lifetime.end.p0(i64 4, ptr nonnull %6) #7
  call void @llvm.lifetime.end.p0(i64 8, ptr nonnull %5) #7
  call void @llvm.lifetime.end.p0(i64 8, ptr nonnull %4) #7
  call void @llvm.lifetime.end.p0(i64 8, ptr nonnull %3) #7
  call void @llvm.lifetime.end.p0(i64 4096, ptr nonnull %2) #7
  ret void
}